; Function Attrs: cold nounwind optsize uwtable
define internal void @uninit(ptr noundef readonly captures(none) %0) #0 {
  %2 = getelementptr inbounds nuw i8, ptr %0, i64 72
  %3 = load ptr, ptr %2, align 8, !tbaa !4
  tail call void @av_freep(ptr noundef %3) #8
  %4 = getelementptr inbounds nuw i8, ptr %3, i64 8
  tail call void @av_freep(ptr noundef nonnull %4) #8
  %5 = getelementptr inbounds nuw i8, ptr %3, i64 16
  tail call void @av_freep(ptr noundef nonnull %5) #8
  ret void
}